target datalayout = "e-m:e-p270:32:32-p271:32:32-p272:64:64-i64:64-i128:128-f80:128-n8:16:32:64-S128"
target triple = "x86_64-pc-linux-gnu"

%struct._generic_ARKInterp = type { ptr, ptr }
%struct._ARKInterpContent_Hermite = type { i32, ptr, ptr, ptr, ptr, double, double, double }
%struct.ARKodeMemRec = type { ptr, double, ptr, i32, i32, double, double, ptr, i32, double, ptr, i32, i32, ptr, ptr, i32, ptr, ptr, i32, ptr, ptr, ptr, ptr, ptr, ptr, ptr, ptr, ptr, ptr, ptr, ptr, ptr, ptr, ptr, i32, ptr, ptr, i32, ptr, i32, ptr, ptr, ptr, ptr, ptr, ptr, ptr, ptr, ptr, ptr, ptr, ptr, ptr, ptr, ptr, ptr, ptr, ptr, ptr, ptr, ptr, ptr, ptr, ptr, ptr, ptr, i32, ptr, ptr, ptr, ptr, ptr, ptr, ptr, i32, ptr, ptr, ptr, i32, ptr, ptr, ptr, ptr, ptr, ptr, ptr, i32, i32, i32, i32, double, double, double, double, double, double, double, double, double, double, i32, ptr, i64, i32, i32, i32, i32, i64, i64, i32, i64, i64, i64, i64, i64, i64, i64, double, double, double, double, double, i32, double, double, i32, i32, i32, i32, i32, i32, i32, i32, ptr, i32, ptr, ptr, ptr, ptr, i32, i32, i32 }

; Function Attrs: nounwind uwtable
define i32 @arkInterpResize_Hermite(ptr noundef %0, ptr noundef %1, ptr noundef %2, ptr noundef %3, i64 noundef %4, i64 noundef %5, ptr noundef %6) #0 {
  %8 = alloca i32, align 4
  %9 = alloca ptr, align 8
  %10 = alloca ptr, align 8
  %11 = alloca ptr, align 8
  %12 = alloca ptr, align 8
  %13 = alloca i64, align 8
  %14 = alloca i64, align 8
  %15 = alloca ptr, align 8
  store ptr %0, ptr %9, align 8, !tbaa !3
  store ptr %1, ptr %10, align 8, !tbaa !8
  store ptr %2, ptr %11, align 8, !tbaa !10
  store ptr %3, ptr %12, align 8, !tbaa !10
  store i64 %4, ptr %13, align 8, !tbaa !11
  store i64 %5, ptr %14, align 8, !tbaa !11
  store ptr %6, ptr %15, align 8, !tbaa !13
  %16 = load ptr, ptr %10, align 8, !tbaa !8
  %17 = icmp eq ptr %16, null
  br i1 %17, label %18, label %19

18:                                               ; preds = %7
  store i32 0, ptr %8, align 4
  br label %94

19:                                               ; preds = %7
  %20 = load ptr, ptr %9, align 8, !tbaa !3
  %21 = load ptr, ptr %11, align 8, !tbaa !10
  %22 = load ptr, ptr %12, align 8, !tbaa !10
  %23 = load i64, ptr %13, align 8, !tbaa !11
  %24 = load i64, ptr %14, align 8, !tbaa !11
  %25 = load ptr, ptr %15, align 8, !tbaa !13
  %26 = load ptr, ptr %10, align 8, !tbaa !8
  %27 = getelementptr inbounds nuw %struct._generic_ARKInterp, ptr %26, i32 0, i32 0
  %28 = load ptr, ptr %27, align 8, !tbaa !35
  %29 = getelementptr inbounds nuw %struct._ARKInterpContent_Hermite, ptr %28, i32 0, i32 1
  %30 = call i32 @arkResizeVec(ptr noundef %20, ptr noundef %21, ptr noundef %22, i64 noundef %23, i64 noundef %24, ptr noundef %25, ptr noundef %29)
  %31 = icmp ne i32 %30, 0
  br i1 %31, label %33, label %32

32:                                               ; preds = %19
  store i32 -20, ptr %8, align 4
  br label %94

33:                                               ; preds = %19
  %34 = load ptr, ptr %9, align 8, !tbaa !3
  %35 = load ptr, ptr %11, align 8, !tbaa !10
  %36 = load ptr, ptr %12, align 8, !tbaa !10
  %37 = load i64, ptr %13, align 8, !tbaa !11
  %38 = load i64, ptr %14, align 8, !tbaa !11
  %39 = load ptr, ptr %15, align 8, !tbaa !13
  %40 = load ptr, ptr %10, align 8, !tbaa !8
  %41 = getelementptr inbounds nuw %struct._generic_ARKInterp, ptr %40, i32 0, i32 0
  %42 = load ptr, ptr %41, align 8, !tbaa !35
  %43 = getelementptr inbounds nuw %struct._ARKInterpContent_Hermite, ptr %42, i32 0, i32 2
  %44 = call i32 @arkResizeVec(ptr noundef %34, ptr noundef %35, ptr noundef %36, i64 noundef %37, i64 noundef %38, ptr noundef %39, ptr noundef %43)
  %45 = icmp ne i32 %44, 0
  br i1 %45, label %47, label %46

46:                                               ; preds = %33
  store i32 -20, ptr %8, align 4
  br label %94

47:                                               ; preds = %33
  %48 = load ptr, ptr %9, align 8, !tbaa !3
  %49 = load ptr, ptr %11, align 8, !tbaa !10
  %50 = load ptr, ptr %12, align 8, !tbaa !10
  %51 = load i64, ptr %13, align 8, !tbaa !11
  %52 = load i64, ptr %14, align 8, !tbaa !11
  %53 = load ptr, ptr %15, align 8, !tbaa !13
  %54 = load ptr, ptr %10, align 8, !tbaa !8
  %55 = getelementptr inbounds nuw %struct._generic_ARKInterp, ptr %54, i32 0, i32 0
  %56 = load ptr, ptr %55, align 8, !tbaa !35
  %57 = getelementptr inbounds nuw %struct._ARKInterpContent_Hermite, ptr %56, i32 0, i32 3
  %58 = call i32 @arkResizeVec(ptr noundef %48, ptr noundef %49, ptr noundef %50, i64 noundef %51, i64 noundef %52, ptr noundef %53, ptr noundef %57)
  %59 = icmp ne i32 %58, 0
  br i1 %59, label %61, label %60

60:                                               ; preds = %47
  store i32 -20, ptr %8, align 4
  br label %94

61:                                               ; preds = %47
  %62 = load ptr, ptr %9, align 8, !tbaa !3
  %63 = load ptr, ptr %11, align 8, !tbaa !10
  %64 = load ptr, ptr %12, align 8, !tbaa !10
  %65 = load i64, ptr %13, align 8, !tbaa !11
  %66 = load i64, ptr %14, align 8, !tbaa !11
  %67 = load ptr, ptr %15, align 8, !tbaa !13
  %68 = load ptr, ptr %10, align 8, !tbaa !8
  %69 = getelementptr inbounds nuw %struct._generic_ARKInterp, ptr %68, i32 0, i32 0
  %70 = load ptr, ptr %69, align 8, !tbaa !35
  %71 = getelementptr inbounds nuw %struct._ARKInterpContent_Hermite, ptr %70, i32 0, i32 4
  %72 = call i32 @arkResizeVec(ptr noundef %62, ptr noundef %63, ptr noundef %64, i64 noundef %65, i64 noundef %66, ptr noundef %67, ptr noundef %71)
  %73 = icmp ne i32 %72, 0
  br i1 %73, label %75, label %74

74:                                               ; preds = %61
  store i32 -20, ptr %8, align 4
  br label %94

75:                                               ; preds = %61
  %76 = load ptr, ptr %9, align 8, !tbaa !3
  %77 = getelementptr inbounds nuw %struct.ARKodeMemRec, ptr %76, i32 0, i32 98
  %78 = load double, ptr %77, align 8, !tbaa !49
  %79 = load ptr, ptr %10, align 8, !tbaa !8
  %80 = getelementptr inbounds nuw %struct._generic_ARKInterp, ptr %79, i32 0, i32 0
  %81 = load ptr, ptr %80, align 8, !tbaa !35
  %82 = getelementptr inbounds nuw %struct._ARKInterpContent_Hermite, ptr %81, i32 0, i32 5
  store double %78, ptr %82, align 8, !tbaa !50
  %83 = load ptr, ptr %9, align 8, !tbaa !3
  %84 = getelementptr inbounds nuw %struct.ARKodeMemRec, ptr %83, i32 0, i32 98
  %85 = load double, ptr %84, align 8, !tbaa !49
  %86 = load ptr, ptr %10, align 8, !tbaa !8
  %87 = getelementptr inbounds nuw %struct._generic_ARKInterp, ptr %86, i32 0, i32 0
  %88 = load ptr, ptr %87, align 8, !tbaa !35
  %89 = getelementptr inbounds nuw %struct._ARKInterpContent_Hermite, ptr %88, i32 0, i32 6
  store double %85, ptr %89, align 8, !tbaa !51
  %90 = load ptr, ptr %10, align 8, !tbaa !8
  %91 = getelementptr inbounds nuw %struct._generic_ARKInterp, ptr %90, i32 0, i32 0
  %92 = load ptr, ptr %91, align 8, !tbaa !35
  %93 = getelementptr inbounds nuw %struct._ARKInterpContent_Hermite, ptr %92, i32 0, i32 7
  store double 0.000000e+00, ptr %93, align 8, !tbaa !52
  store i32 0, ptr %8, align 4
  br label %94

94:                                               ; preds = %75, %74, %60, %46, %32, %18
  %95 = load i32, ptr %8, align 4
  ret i32 %95
}