; Function Attrs: nounwind uwtable
define range(i32 -20, 1) i32 @arkInterpResize_Hermite(ptr noundef %0, ptr noundef readonly captures(address_is_null) %1, ptr noundef %2, ptr noundef %3, i64 noundef %4, i64 noundef %5, ptr noundef %6) #0 {
  %8 = icmp eq ptr %1, null
  br i1 %8, label %32, label %9

9:                                                ; preds = %7
  %10 = load ptr, ptr %1, align 8, !tbaa !17
  %11 = getelementptr inbounds nuw i8, ptr %10, i64 8
  %12 = tail call i32 @arkResizeVec(ptr noundef %0, ptr noundef %2, ptr noundef %3, i64 noundef %4, i64 noundef %5, ptr noundef %6, ptr noundef nonnull %11) #14
  %.not = icmp eq i32 %12, 0
  br i1 %.not, label %32, label %13

13:                                               ; preds = %9
  %14 = load ptr, ptr %1, align 8, !tbaa !17
  %15 = getelementptr inbounds nuw i8, ptr %14, i64 16
  %16 = tail call i32 @arkResizeVec(ptr noundef %0, ptr noundef %2, ptr noundef %3, i64 noundef %4, i64 noundef %5, ptr noundef %6, ptr noundef nonnull %15) #14
  %.not35 = icmp eq i32 %16, 0
  br i1 %.not35, label %32, label %17

17:                                               ; preds = %13
  %18 = load ptr, ptr %1, align 8, !tbaa !17
  %19 = getelementptr inbounds nuw i8, ptr %18, i64 24
  %20 = tail call i32 @arkResizeVec(ptr noundef %0, ptr noundef %2, ptr noundef %3, i64 noundef %4, i64 noundef %5, ptr noundef %6, ptr noundef nonnull %19) #14
  %.not36 = icmp eq i32 %20, 0
  br i1 %.not36, label %32, label %21

21:                                               ; preds = %17
  %22 = load ptr, ptr %1, align 8, !tbaa !17
  %23 = getelementptr inbounds nuw i8, ptr %22, i64 32
  %24 = tail call i32 @arkResizeVec(ptr noundef %0, ptr noundef %2, ptr noundef %3, i64 noundef %4, i64 noundef %5, ptr noundef %6, ptr noundef nonnull %23) #14
  %.not37 = icmp eq i32 %24, 0
  br i1 %.not37, label %32, label %25

25:                                               ; preds = %21
  %26 = getelementptr inbounds nuw i8, ptr %0, i64 752
  %27 = load double, ptr %26, align 8, !tbaa !32
  %28 = load ptr, ptr %1, align 8, !tbaa !17
  %29 = getelementptr inbounds nuw i8, ptr %28, i64 40
  store double %27, ptr %29, align 8, !tbaa !33
  %30 = getelementptr inbounds nuw i8, ptr %28, i64 48
  store double %27, ptr %30, align 8, !tbaa !34
  %31 = getelementptr inbounds nuw i8, ptr %28, i64 56
  store double 0.000000e+00, ptr %31, align 8, !tbaa !35
  br label %32

32:                                               ; preds = %21, %17, %13, %9, %7, %25
  %.0 = phi i32 [ 0, %25 ], [ 0, %7 ], [ -20, %9 ], [ -20, %13 ], [ -20, %17 ], [ -20, %21 ]
  ret i32 %.0
}